target datalayout = "e-m:e-p270:32:32-p271:32:32-p272:64:64-i64:64-i128:128-f80:128-n8:16:32:64-S128"
target triple = "x86_64-pc-linux-gnu"

%struct.anon = type { i64, double, double }

@stderr = external global ptr, align 8
@.str.45 = private unnamed_addr constant [19 x i8] c"N_VGetArrayPointer\00", align 1
@.str.46 = private unnamed_addr constant [55 x i8] c"\0ASUNDIALS_ERROR: %s() failed - returned NULL pointer\0A\0A\00", align 1
@.str.47 = private unnamed_addr constant [46 x i8] c"\0ASUNDIALS_ERROR: %s() failed with flag = %d\0A\0A\00", align 1
@.str.48 = private unnamed_addr constant [53 x i8] c"\0AMEMORY_ERROR: %s() failed - returned NULL pointer\0A\0A\00", align 1

; Function Attrs: nounwind uwtable
define internal i32 @check_flag(ptr noundef %0, ptr noundef %1, i32 noundef %2) #0 {
  %4 = alloca i32, align 4
  %5 = alloca ptr, align 8
  %6 = alloca ptr, align 8
  %7 = alloca i32, align 4
  %8 = alloca ptr, align 8
  %9 = alloca i32, align 4
  store ptr %0, ptr %5, align 8, !tbaa !10
  store ptr %1, ptr %6, align 8, !tbaa !28
  store i32 %2, ptr %7, align 4, !tbaa !8
  call void @llvm.lifetime.start.p0(i64 8, ptr %8) #6
  %10 = load i32, ptr %7, align 4, !tbaa !8
  %11 = icmp eq i32 %10, 0
  br i1 %11, label %12, label %19

12:                                               ; preds = %3
  %13 = load ptr, ptr %5, align 8, !tbaa !10
  %14 = icmp eq ptr %13, null
  br i1 %14, label %15, label %19

15:                                               ; preds = %12
  %16 = load ptr, ptr @stderr, align 8, !tbaa !24
  %17 = load ptr, ptr %6, align 8, !tbaa !28
  %18 = call i32 (ptr, ptr, ...) @fprintf(ptr noundef %16, ptr noundef @.str.46, ptr noundef %17) #6
  store i32 1, ptr %4, align 4
  store i32 1, ptr %9, align 4
  br label %47

19:                                               ; preds = %12, %3
  %20 = load i32, ptr %7, align 4, !tbaa !8
  %21 = icmp eq i32 %20, 1
  br i1 %21, label %22, label %34

22:                                               ; preds = %19
  %23 = load ptr, ptr %5, align 8, !tbaa !10
  store ptr %23, ptr %8, align 8, !tbaa !30
  %24 = load ptr, ptr %8, align 8, !tbaa !30
  %25 = load i32, ptr %24, align 4, !tbaa !8
  %26 = icmp slt i32 %25, 0
  br i1 %26, label %27, label %33

27:                                               ; preds = %22
  %28 = load ptr, ptr @stderr, align 8, !tbaa !24
  %29 = load ptr, ptr %6, align 8, !tbaa !28
  %30 = load ptr, ptr %8, align 8, !tbaa !30
  %31 = load i32, ptr %30, align 4, !tbaa !8
  %32 = call i32 (ptr, ptr, ...) @fprintf(ptr noundef %28, ptr noundef @.str.47, ptr noundef %29, i32 noundef %31) #6
  store i32 1, ptr %4, align 4
  store i32 1, ptr %9, align 4
  br label %47

33:                                               ; preds = %22
  br label %45

34:                                               ; preds = %19
  %35 = load i32, ptr %7, align 4, !tbaa !8
  %36 = icmp eq i32 %35, 2
  br i1 %36, label %37, label %44

37:                                               ; preds = %34
  %38 = load ptr, ptr %5, align 8, !tbaa !10
  %39 = icmp eq ptr %38, null
  br i1 %39, label %40, label %44

40:                                               ; preds = %37
  %41 = load ptr, ptr @stderr, align 8, !tbaa !24
  %42 = load ptr, ptr %6, align 8, !tbaa !28
  %43 = call i32 (ptr, ptr, ...) @fprintf(ptr noundef %41, ptr noundef @.str.48, ptr noundef %42) #6
  store i32 1, ptr %4, align 4
  store i32 1, ptr %9, align 4
  br label %47

44:                                               ; preds = %37, %34
  br label %45

45:                                               ; preds = %44, %33
  br label %46

46:                                               ; preds = %45
  store i32 0, ptr %4, align 4
  store i32 1, ptr %9, align 4
  br label %47

47:                                               ; preds = %46, %40, %27, %15
  call void @llvm.lifetime.end.p0(i64 8, ptr %8) #6
  %48 = load i32, ptr %4, align 4
  ret i32 %48
}

; Function Attrs: nounwind uwtable
define internal i32 @f(double noundef %0, ptr noundef %1, ptr noundef %2, ptr noundef %3) #0 {
  %5 = alloca i32, align 4
  %6 = alloca double, align 8
  %7 = alloca ptr, align 8
  %8 = alloca ptr, align 8
  %9 = alloca ptr, align 8
  %10 = alloca ptr, align 8
  %11 = alloca i64, align 8
  %12 = alloca double, align 8
  %13 = alloca double, align 8
  %14 = alloca ptr, align 8
  %15 = alloca ptr, align 8
  %16 = alloca double, align 8
  %17 = alloca double, align 8
  %18 = alloca i64, align 8
  %19 = alloca i64, align 8
  %20 = alloca i32, align 4
  store double %0, ptr %6, align 8, !tbaa !4
  store ptr %1, ptr %7, align 8, !tbaa !14
  store ptr %2, ptr %8, align 8, !tbaa !14
  store ptr %3, ptr %9, align 8, !tbaa !10
  call void @llvm.lifetime.start.p0(i64 8, ptr %10) #6
  %21 = load ptr, ptr %9, align 8, !tbaa !10
  store ptr %21, ptr %10, align 8, !tbaa !10
  call void @llvm.lifetime.start.p0(i64 8, ptr %11) #6
  %22 = load ptr, ptr %10, align 8, !tbaa !10
  %23 = getelementptr inbounds nuw %struct.anon, ptr %22, i32 0, i32 0
  %24 = load i64, ptr %23, align 8, !tbaa !18
  store i64 %24, ptr %11, align 8, !tbaa !12
  call void @llvm.lifetime.start.p0(i64 8, ptr %12) #6
  %25 = load ptr, ptr %10, align 8, !tbaa !10
  %26 = getelementptr inbounds nuw %struct.anon, ptr %25, i32 0, i32 2
  %27 = load double, ptr %26, align 8, !tbaa !20
  store double %27, ptr %12, align 8, !tbaa !4
  call void @llvm.lifetime.start.p0(i64 8, ptr %13) #6
  %28 = load ptr, ptr %10, align 8, !tbaa !10
  %29 = getelementptr inbounds nuw %struct.anon, ptr %28, i32 0, i32 1
  %30 = load double, ptr %29, align 8, !tbaa !21
  store double %30, ptr %13, align 8, !tbaa !4
  call void @llvm.lifetime.start.p0(i64 8, ptr %14) #6
  store ptr null, ptr %14, align 8, !tbaa !26
  call void @llvm.lifetime.start.p0(i64 8, ptr %15) #6
  store ptr null, ptr %15, align 8, !tbaa !26
  call void @llvm.lifetime.start.p0(i64 8, ptr %16) #6
  call void @llvm.lifetime.start.p0(i64 8, ptr %17) #6
  call void @llvm.lifetime.start.p0(i64 8, ptr %18) #6
  call void @llvm.lifetime.start.p0(i64 8, ptr %19) #6
  %31 = load ptr, ptr %7, align 8, !tbaa !14
  %32 = call ptr @N_VGetArrayPointer(ptr noundef %31)
  store ptr %32, ptr %14, align 8, !tbaa !26
  %33 = load ptr, ptr %14, align 8, !tbaa !26
  %34 = call i32 @check_flag(ptr noundef %33, ptr noundef @.str.45, i32 noundef 0)
  %35 = icmp ne i32 %34, 0
  br i1 %35, label %36, label %37

36:                                               ; preds = %4
  store i32 1, ptr %5, align 4
  store i32 1, ptr %20, align 4
  br label %105

37:                                               ; preds = %4
  %38 = load ptr, ptr %8, align 8, !tbaa !14
  %39 = call ptr @N_VGetArrayPointer(ptr noundef %38)
  store ptr %39, ptr %15, align 8, !tbaa !26
  %40 = load ptr, ptr %15, align 8, !tbaa !26
  %41 = call i32 @check_flag(ptr noundef %40, ptr noundef @.str.45, i32 noundef 0)
  %42 = icmp ne i32 %41, 0
  br i1 %42, label %43, label %44

43:                                               ; preds = %37
  store i32 1, ptr %5, align 4
  store i32 1, ptr %20, align 4
  br label %105

44:                                               ; preds = %37
  %45 = load ptr, ptr %8, align 8, !tbaa !14
  call void @N_VConst(double noundef 0.000000e+00, ptr noundef %45)
  %46 = load double, ptr %12, align 8, !tbaa !4
  %47 = load double, ptr %13, align 8, !tbaa !4
  %48 = fdiv double %46, %47
  %49 = load double, ptr %13, align 8, !tbaa !4
  %50 = fdiv double %48, %49
  store double %50, ptr %16, align 8, !tbaa !4
  %51 = load double, ptr %12, align 8, !tbaa !4
  %52 = fmul double -2.000000e+00, %51
  %53 = load double, ptr %13, align 8, !tbaa !4
  %54 = fdiv double %52, %53
  %55 = load double, ptr %13, align 8, !tbaa !4
  %56 = fdiv double %54, %55
  store double %56, ptr %17, align 8, !tbaa !4
  %57 = load i64, ptr %11, align 8, !tbaa !12
  %58 = sdiv i64 %57, 2
  store i64 %58, ptr %19, align 8, !tbaa !12
  %59 = load ptr, ptr %15, align 8, !tbaa !26
  %60 = getelementptr inbounds double, ptr %59, i64 0
  store double 0.000000e+00, ptr %60, align 8, !tbaa !4
  store i64 1, ptr %18, align 8, !tbaa !12
  br label %61

61:                                               ; preds = %90, %44
  %62 = load i64, ptr %18, align 8, !tbaa !12
  %63 = load i64, ptr %11, align 8, !tbaa !12
  %64 = sub nsw i64 %63, 1
  %65 = icmp slt i64 %62, %64
  br i1 %65, label %66, label %93

66:                                               ; preds = %61
  %67 = load double, ptr %16, align 8, !tbaa !4
  %68 = load ptr, ptr %14, align 8, !tbaa !26
  %69 = load i64, ptr %18, align 8, !tbaa !12
  %70 = sub nsw i64 %69, 1
  %71 = getelementptr inbounds double, ptr %68, i64 %70
  %72 = load double, ptr %71, align 8, !tbaa !4
  %73 = load double, ptr %17, align 8, !tbaa !4
  %74 = load ptr, ptr %14, align 8, !tbaa !26
  %75 = load i64, ptr %18, align 8, !tbaa !12
  %76 = getelementptr inbounds double, ptr %74, i64 %75
  %77 = load double, ptr %76, align 8, !tbaa !4
  %78 = fmul double %73, %77
  %79 = call double @llvm.fmuladd.f64(double %67, double %72, double %78)
  %80 = load double, ptr %16, align 8, !tbaa !4
  %81 = load ptr, ptr %14, align 8, !tbaa !26
  %82 = load i64, ptr %18, align 8, !tbaa !12
  %83 = add nsw i64 %82, 1
  %84 = getelementptr inbounds double, ptr %81, i64 %83
  %85 = load double, ptr %84, align 8, !tbaa !4
  %86 = call double @llvm.fmuladd.f64(double %80, double %85, double %79)
  %87 = load ptr, ptr %15, align 8, !tbaa !26
  %88 = load i64, ptr %18, align 8, !tbaa !12
  %89 = getelementptr inbounds double, ptr %87, i64 %88
  store double %86, ptr %89, align 8, !tbaa !4
  br label %90

90:                                               ; preds = %66
  %91 = load i64, ptr %18, align 8, !tbaa !12
  %92 = add nsw i64 %91, 1
  store i64 %92, ptr %18, align 8, !tbaa !12
  br label %61

93:                                               ; preds = %61
  %94 = load ptr, ptr %15, align 8, !tbaa !26
  %95 = load i64, ptr %11, align 8, !tbaa !12
  %96 = sub nsw i64 %95, 1
  %97 = getelementptr inbounds double, ptr %94, i64 %96
  store double 0.000000e+00, ptr %97, align 8, !tbaa !4
  %98 = load double, ptr %13, align 8, !tbaa !4
  %99 = fdiv double 1.000000e-02, %98
  %100 = load ptr, ptr %15, align 8, !tbaa !26
  %101 = load i64, ptr %19, align 8, !tbaa !12
  %102 = getelementptr inbounds double, ptr %100, i64 %101
  %103 = load double, ptr %102, align 8, !tbaa !4
  %104 = fadd double %103, %99
  store double %104, ptr %102, align 8, !tbaa !4
  store i32 0, ptr %5, align 4
  store i32 1, ptr %20, align 4
  br label %105

105:                                              ; preds = %93, %43, %36
  call void @llvm.lifetime.end.p0(i64 8, ptr %19) #6
  call void @llvm.lifetime.end.p0(i64 8, ptr %18) #6
  call void @llvm.lifetime.end.p0(i64 8, ptr %17) #6
  call void @llvm.lifetime.end.p0(i64 8, ptr %16) #6
  call void @llvm.lifetime.end.p0(i64 8, ptr %15) #6
  call void @llvm.lifetime.end.p0(i64 8, ptr %14) #6
  call void @llvm.lifetime.end.p0(i64 8, ptr %13) #6
  call void @llvm.lifetime.end.p0(i64 8, ptr %12) #6
  call void @llvm.lifetime.end.p0(i64 8, ptr %11) #6
  call void @llvm.lifetime.end.p0(i64 8, ptr %10) #6
  %106 = load i32, ptr %5, align 4
  ret i32 %106
}