; Function Attrs: nounwind uwtable
define internal range(i32 0, 2) i32 @f(double %0, ptr noundef %1, ptr noundef %2, ptr noundef readonly captures(none) %3) #0 {
  %5 = load i64, ptr %3, align 8, !tbaa !10
  %6 = getelementptr inbounds nuw i8, ptr %3, i64 16
  %7 = load double, ptr %6, align 8, !tbaa !14
  %8 = getelementptr inbounds nuw i8, ptr %3, i64 8
  %9 = load double, ptr %8, align 8, !tbaa !15
  %10 = tail call ptr @N_VGetArrayPointer(ptr noundef %1) #9
  %11 = icmp eq ptr %10, null
  br i1 %11, label %check_flag.exit, label %14

check_flag.exit:                                  ; preds = %4
  %12 = load ptr, ptr @stderr, align 8, !tbaa !8
  %13 = tail call i32 (ptr, ptr, ...) @fprintf(ptr noundef %12, ptr noundef nonnull @.str.46, ptr noundef nonnull @.str.45) #10
  br label %44

14:                                               ; preds = %4
  %15 = tail call ptr @N_VGetArrayPointer(ptr noundef %2) #9
  %16 = icmp eq ptr %15, null
  br i1 %16, label %check_flag.exit40, label %19

check_flag.exit40:                                ; preds = %14
  %17 = load ptr, ptr @stderr, align 8, !tbaa !8
  %18 = tail call i32 (ptr, ptr, ...) @fprintf(ptr noundef %17, ptr noundef nonnull @.str.46, ptr noundef nonnull @.str.45) #10
  br label %44

19:                                               ; preds = %14
  tail call void @N_VConst(double noundef 0.000000e+00, ptr noundef %2) #9
  %20 = fdiv double %7, %9
  %21 = fdiv double %20, %9
  %22 = fmul double %7, -2.000000e+00
  %23 = fdiv double %22, %9
  %24 = fdiv double %23, %9
  %25 = sdiv i64 %5, 2
  store double 0.000000e+00, ptr %15, align 8, !tbaa !18
  %26 = add i64 %5, -1
  %27 = icmp sgt i64 %5, 2
  br i1 %27, label %.lr.ph, label %._crit_edge

.lr.ph:                                           ; preds = %19, %.lr.ph
  %.03645 = phi i64 [ %34, %.lr.ph ], [ 1, %19 ]
  %28 = getelementptr double, ptr %10, i64 %.03645
  %29 = getelementptr i8, ptr %28, i64 -8
  %30 = load double, ptr %29, align 8, !tbaa !18
  %31 = load double, ptr %28, align 8, !tbaa !18
  %32 = fmul double %24, %31
  %33 = tail call double @llvm.fmuladd.f64(double %21, double %30, double %32)
  %34 = add nuw nsw i64 %.03645, 1
  %35 = getelementptr inbounds nuw double, ptr %10, i64 %34
  %36 = load double, ptr %35, align 8, !tbaa !18
  %37 = tail call double @llvm.fmuladd.f64(double %21, double %36, double %33)
  %38 = getelementptr inbounds nuw double, ptr %15, i64 %.03645
  store double %37, ptr %38, align 8, !tbaa !18
  %exitcond.not = icmp eq i64 %34, %26
  br i1 %exitcond.not, label %._crit_edge, label %.lr.ph

._crit_edge:                                      ; preds = %.lr.ph, %19
  %39 = getelementptr inbounds double, ptr %15, i64 %26
  store double 0.000000e+00, ptr %39, align 8, !tbaa !18
  %40 = fdiv double 1.000000e-02, %9
  %41 = getelementptr inbounds double, ptr %15, i64 %25
  %42 = load double, ptr %41, align 8, !tbaa !18
  %43 = fadd double %40, %42
  store double %43, ptr %41, align 8, !tbaa !18
  br label %44

44:                                               ; preds = %check_flag.exit40, %check_flag.exit, %._crit_edge
  %.0 = phi i32 [ 0, %._crit_edge ], [ 1, %check_flag.exit ], [ 1, %check_flag.exit40 ]
  ret i32 %.0
}